; Function Attrs: mustprogress nofree norecurse nosync nounwind willreturn memory(none) uwtable
define dso_local noundef zeroext i1 @_ZN24FunctionInvocationBinary8safe_opsE10eBinaryOps(i32 noundef %0) local_unnamed_addr #5 align 2 {
  %2 = icmp ult i32 %0, 18
  %switch.cast = trunc i32 %0 to i18
  %switch.downshift = lshr i18 -65505, %switch.cast
  %3 = and i18 %switch.downshift, 1
  %switch.masked = icmp ne i18 %3, 0
  %.0 = select i1 %2, i1 %switch.masked, i1 false
  ret i1 %.0
}